Certificate:
    Data:
        Version: 3 (0x2)
        Serial Number: 2 (0x2)
        Signature Algorithm: sha1WithRSAEncryption
        Issuer: DC=org, DC=simple, O=Simple Inc, OU=Simple Root CA, CN=Simple Root CA
        Validity
            Not Before: Dec 10 08:22:41 2017 GMT
            Not After : Dec 10 08:22:41 2027 GMT
        Subject: DC=org, DC=simple, O=Simple Inc, OU=Simple Signing CA, CN=Simple Signing CA
        Subject Public Key Info:
            Public Key Algorithm: rsaEncryption
            RSA Public Key: (2048 bit)
                Modulus (2048 bit):
                    00:de:f5:50:dc:1f:92:e1:9e:33:ba:8d:51:c4:9a:
                    97:cf:20:59:33:b8:f8:53:c8:0f:7d:78:63:80:1b:
                    16:94:af:8c:de:be:f4:85:3f:9d:37:5a:f8:d2:c9:
                    f4:22:26:83:d9:ef:f1:76:95:af:64:50:d1:88:e3:
                    26:62:40:9a:22:db:ce:6e:2b:fd:ce:ee:54:6e:76:
                    b1:c6:e3:21:8a:a8:3a:e4:f9:83:e5:ea:4f:a2:20:
                    0a:ea:a7:fb:cc:53:78:ed:f0:21:1f:d9:fc:12:d3:
                    1b:3e:94:29:8e:14:0d:3d:dc:8e:e4:07:59:7a:1f:
                    a5:00:be:18:eb:21:8e:17:f1:a1:1a:e8:76:fb:70:
                    30:17:85:9b:e3:f1:88:61:bb:fd:af:b5:ce:14:2f:
                    a0:16:1d:7c:e4:04:f1:3c:92:80:52:ca:60:98:63:
                    97:76:03:85:17:e1:9a:b6:db:20:54:2a:49:6d:c8:
                    ea:bd:b1:d9:de:7e:4a:0f:76:d9:c2:ba:19:99:74:
                    53:00:cd:da:45:72:7c:fd:41:b3:d4:d6:44:98:f2:
                    f0:38:9d:4e:b1:b9:25:3d:1b:58:0d:1f:c9:04:dc:
                    d9:f7:7b:11:2c:4d:97:3d:f5:38:fc:5c:66:05:14:
                    7a:be:d0:3e:f9:26:e9:66:dc:13:82:34:ea:50:3c:
                    a3:97
                Exponent: 65537 (0x10001)
        X509v3 extensions:
            X509v3 Key Usage: critical
                Certificate Sign, CRL Sign
            X509v3 Basic Constraints: critical
                CA:TRUE, pathlen:0
            X509v3 Subject Key Identifier: 
                66:70:42:94:F3:78:C6:61:E7:BC:FC:7A:D7:89:CA:A2:6F:27:9F:18
            X509v3 Authority Key Identifier: 
                keyid:23:84:CE:56:1C:D9:8C:1D:DD:A6:AE:12:CB:5B:14:ED:62:76:CA:B4

    Signature Algorithm: sha1WithRSAEncryption
        25:2f:08:ee:a1:9f:cd:46:49:42:08:d6:fc:62:70:b9:15:a2:
        42:76:36:c7:50:83:7b:fa:3a:c4:c3:0e:cb:9c:0e:a6:40:27:
        9a:9e:3b:7b:08:76:97:60:5e:f8:92:b6:11:b6:50:73:16:80:
        f6:77:5c:05:43:e6:e3:59:62:90:fd:cf:2a:8d:bd:8b:cc:88:
        61:da:cb:fb:2d:84:32:07:a8:8c:fb:de:f8:92:8a:69:f5:29:
        41:2a:60:c5:2a:ee:0e:38:92:a9:b6:05:06:00:54:84:1f:06:
        ec:5c:e7:8f:1f:ef:75:fc:e1:a3:4d:ae:ca:19:7c:46:76:1a:
        ca:f9:b7:29:63:8d:c9:41:0c:85:9b:98:71:f8:35:7b:bb:54:
        64:53:f7:0d:a8:d6:98:da:67:fe:81:bf:d7:8c:98:46:c5:d4:
        47:c5:d8:7c:33:18:48:51:f4:c6:4e:64:78:ef:dc:81:12:54:
        75:cf:78:74:0c:07:67:a3:ca:1d:84:24:21:9b:f6:19:0d:2d:
        bd:f4:9c:a8:f7:b2:1c:dd:f1:a1:a0:81:ea:fa:11:a7:34:c1:
        82:14:1a:df:0e:20:29:85:d4:3e:a3:cf:9e:e6:02:27:ca:67:
        da:9d:4e:46:a2:4a:3c:f8:93:2f:a0:fa:ce:82:41:bf:f3:5d:
        db:d0:1c:72
-----BEGIN CERTIFICATE-----
MIIDzzCCAregAwIBAgIBAjANBgkqhkiG9w0BAQUFADB0MRMwEQYKCZImiZPyLGQB
GRYDb3JnMRYwFAYKCZImiZPyLGQBGRYGc2ltcGxlMRMwEQYDVQQKDApTaW1wbGUg
SW5jMRcwFQYDVQQLDA5TaW1wbGUgUm9vdCBDQTEXMBUGA1UEAwwOU2ltcGxlIFJv
b3QgQ0EwHhcNMTcxMjEwMDgyMjQxWhcNMjcxMjEwMDgyMjQxWjB6MRMwEQYKCZIm
iZPyLGQBGRYDb3JnMRYwFAYKCZImiZPyLGQBGRYGc2ltcGxlMRMwEQYDVQQKDApT
aW1wbGUgSW5jMRowGAYDVQQLDBFTaW1wbGUgU2lnbmluZyBDQTEaMBgGA1UEAwwR
U2ltcGxlIFNpZ25pbmcgQ0EwggEiMA0GCSqGSIb3DQEBAQUAA4IBDwAwggEKAoIB
AQDe9VDcH5LhnjO6jVHEmpfPIFkzuPhTyA99eGOAGxaUr4zevvSFP503WvjSyfQi
JoPZ7/F2la9kUNGI4yZiQJoi285uK/3O7lRudrHG4yGKqDrk+YPl6k+iIArqp/vM
U3jt8CEf2fwS0xs+lCmOFA093I7kB1l6H6UAvhjrIY4X8aEa6Hb7cDAXhZvj8Yhh
u/2vtc4UL6AWHXzkBPE8koBSymCYY5d2A4UX4Zq22yBUKkltyOq9sdnefkoPdtnC
uhmZdFMAzdpFcnz9QbPU1kSY8vA4nU6xuSU9G1gNH8kE3Nn3exEsTZc99Tj8XGYF
FHq+0D75Julm3BOCNOpQPKOXAgMBAAGjZjBkMA4GA1UdDwEB/wQEAwIBBjASBgNV
HRMBAf8ECDAGAQH/AgEAMB0GA1UdDgQWBBRmcEKU83jGYee8/HrXicqibyefGDAf
BgNVHSMEGDAWgBQjhM5WHNmMHd2mrhLLWxTtYnbKtDANBgkqhkiG9w0BAQUFAAOC
AQEAJS8I7qGfzUZJQgjW/GJwuRWiQnY2x1CDe/o6xMMOy5wOpkAnmp47ewh2l2Be
+JK2EbZQcxaA9ndcBUPm41likP3PKo29i8yIYdrL+y2EMgeojPve+JKKafUpQSpg
xSruDjiSqbYFBgBUhB8G7Fznjx/vdfzho02uyhl8RnYayvm3KWONyUEMhZuYcfg1
e7tUZFP3DajWmNpn/oG/14yYRsXUR8XYfDMYSFH0xk5keO/cgRJUdc94dAwHZ6PK
HYQkIZv2GQ0tvfScqPeyHN3xoaCB6voRpzTBghQa3w4gKYXUPqPPnuYCJ8pn2p1O
RqJKPPiTL6D6zoJBv/Nd29Accg==
-----END CERTIFICATE-----
Certificate:
    Data:
        Version: 3 (0x2)
        Serial Number: 1 (0x1)
        Signature Algorithm: sha1WithRSAEncryption
        Issuer: DC=org, DC=simple, O=Simple Inc, OU=Simple Root CA, CN=Simple Root CA
        Validity
            Not Before: Dec 10 08:21:21 2017 GMT
            Not After : Dec 10 08:21:21 2027 GMT
        Subject: DC=org, DC=simple, O=Simple Inc, OU=Simple Root CA, CN=Simple Root CA
        Subject Public Key Info:
            Public Key Algorithm: rsaEncryption
            RSA Public Key: (2048 bit)
                Modulus (2048 bit):
                    00:bf:5b:50:8c:19:ac:d0:1f:cb:bc:3f:fa:8f:9f:
                    8a:34:b0:3f:8e:33:0b:99:0a:de:3c:66:84:71:dc:
                    94:8d:ed:3e:04:30:01:5d:33:15:28:9c:a2:b2:00:
                    03:f0:0b:d1:4d:07:48:d4:23:6d:58:dc:95:9c:b3:
                    73:46:0c:46:df:0f:60:5d:58:b4:7f:12:d5:69:f9:
                    35:69:90:af:84:3c:ae:35:b4:25:e8:7f:6f:64:e4:
                    49:ce:b1:24:e8:46:ad:16:dd:60:69:4f:f6:46:77:
                    9e:ff:5e:c1:c9:4d:91:2f:4f:a2:6b:7a:77:bf:6f:
                    54:a6:d9:f2:01:6c:fd:2e:86:8c:90:d9:95:20:6e:
                    42:f9:9d:0b:ec:95:20:ac:2c:fe:cb:c2:e9:7f:15:
                    64:72:a9:43:c4:4d:96:3f:97:a0:48:aa:40:3d:af:
                    df:88:da:da:4e:63:88:16:49:39:dd:d1:12:df:1f:
                    5a:73:1d:64:cc:da:5c:a0:c0:d8:c3:f3:6b:46:79:
                    b0:da:88:4f:e9:f4:48:f5:75:83:4c:f0:05:fd:e6:
                    9c:61:f9:a5:8e:26:f7:31:9c:c4:03:de:9c:d9:4e:
                    14:28:51:97:f0:c8:6b:4f:03:f3:0b:2a:e3:d8:31:
                    d5:6a:33:27:6c:a9:c1:23:fe:f3:af:8f:e5:15:43:
                    37:fd
                Exponent: 65537 (0x10001)
        X509v3 extensions:
            X509v3 Key Usage: critical
                Certificate Sign, CRL Sign
            X509v3 Basic Constraints: critical
                CA:TRUE
            X509v3 Subject Key Identifier: 
                23:84:CE:56:1C:D9:8C:1D:DD:A6:AE:12:CB:5B:14:ED:62:76:CA:B4
            X509v3 Authority Key Identifier: 
                keyid:23:84:CE:56:1C:D9:8C:1D:DD:A6:AE:12:CB:5B:14:ED:62:76:CA:B4

    Signature Algorithm: sha1WithRSAEncryption
        02:4e:e3:22:ec:a7:30:34:bc:82:f5:90:f9:79:18:57:bc:48:
        6a:2e:94:97:9e:f1:b3:c9:18:3f:07:9a:08:39:40:df:bb:33:
        53:eb:b3:36:6b:27:2d:25:e8:f0:27:b0:7d:2a:f3:88:0d:86:
        2b:b6:41:c7:26:73:de:81:da:91:2c:07:90:2e:e3:16:64:90:
        3e:55:65:07:19:38:4a:e2:c2:c9:db:8d:dc:d7:5b:c9:e0:f3:
        42:6c:a1:63:e1:c3:d9:eb:b1:88:bb:d5:4e:57:c0:a0:df:f6:
        fd:f5:f3:93:4e:b8:05:5f:8b:d0:17:85:69:cb:7a:f5:a2:2c:
        20:67:4d:4e:0b:b5:3c:bc:b1:65:8e:f2:84:6f:f4:94:3e:3e:
        d9:b6:4c:1f:39:03:4a:5c:b6:4c:e9:75:5c:79:b7:36:c0:db:
        ed:58:48:de:99:15:4f:73:12:2e:7e:d5:d3:05:f2:3d:06:b1:
        ca:6f:8e:9d:21:fc:86:31:5c:6c:04:b0:d0:8d:f6:72:22:0f:
        e3:11:71:25:8f:d9:c7:64:e9:58:7b:fc:26:96:fa:cb:36:d7:
        10:a3:95:26:f1:b0:18:ef:15:25:20:71:43:49:7f:26:6a:d4:
        2b:59:4c:90:34:b0:83:c8:e6:2f:24:77:c4:52:ad:b5:4e:6f:
        cb:48:4f:d4
-----BEGIN CERTIFICATE-----
MIIDxjCCAq6gAwIBAgIBATANBgkqhkiG9w0BAQUFADB0MRMwEQYKCZImiZPyLGQB
GRYDb3JnMRYwFAYKCZImiZPyLGQBGRYGc2ltcGxlMRMwEQYDVQQKDApTaW1wbGUg
SW5jMRcwFQYDVQQLDA5TaW1wbGUgUm9vdCBDQTEXMBUGA1UEAwwOU2ltcGxlIFJv
b3QgQ0EwHhcNMTcxMjEwMDgyMTIxWhcNMjcxMjEwMDgyMTIxWjB0MRMwEQYKCZIm
iZPyLGQBGRYDb3JnMRYwFAYKCZImiZPyLGQBGRYGc2ltcGxlMRMwEQYDVQQKDApT
aW1wbGUgSW5jMRcwFQYDVQQLDA5TaW1wbGUgUm9vdCBDQTEXMBUGA1UEAwwOU2lt
cGxlIFJvb3QgQ0EwggEiMA0GCSqGSIb3DQEBAQUAA4IBDwAwggEKAoIBAQC/W1CM
GazQH8u8P/qPn4o0sD+OMwuZCt48ZoRx3JSN7T4EMAFdMxUonKKyAAPwC9FNB0jU
I21Y3JWcs3NGDEbfD2BdWLR/EtVp+TVpkK+EPK41tCXof29k5EnOsSToRq0W3WBp
T/ZGd57/XsHJTZEvT6Jrene/b1Sm2fIBbP0uhoyQ2ZUgbkL5nQvslSCsLP7Lwul/
FWRyqUPETZY/l6BIqkA9r9+I2tpOY4gWSTnd0RLfH1pzHWTM2lygwNjD82tGebDa
iE/p9Ej1dYNM8AX95pxh+aWOJvcxnMQD3pzZThQoUZfwyGtPA/MLKuPYMdVqMyds
qcEj/vOvj+UVQzf9AgMBAAGjYzBhMA4GA1UdDwEB/wQEAwIBBjAPBgNVHRMBAf8E
BTADAQH/MB0GA1UdDgQWBBQjhM5WHNmMHd2mrhLLWxTtYnbKtDAfBgNVHSMEGDAW
gBQjhM5WHNmMHd2mrhLLWxTtYnbKtDANBgkqhkiG9w0BAQUFAAOCAQEAAk7jIuyn
MDS8gvWQ+XkYV7xIai6Ul57xs8kYPweaCDlA37szU+uzNmsnLSXo8CewfSrziA2G
K7ZBxyZz3oHakSwHkC7jFmSQPlVlBxk4SuLCyduN3NdbyeDzQmyhY+HD2euxiLvV
TlfAoN/2/fXzk064BV+L0BeFact69aIsIGdNTgu1PLyxZY7yhG/0lD4+2bZMHzkD
Sly2TOl1XHm3NsDb7VhI3pkVT3MSLn7V0wXyPQaxym+OnSH8hjFcbASw0I32ciIP
4xFxJY/Zx2TpWHv8Jpb6yzbXEKOVJvGwGO8VJSBxQ0l/JmrUK1lMkDSwg8jmLyR3
xFKttU5vy0hP1A==
-----END CERTIFICATE-----
