Certificate:
    Data:
        Version: 3 (0x2)
        Serial Number: 1 (0x1)
        Signature Algorithm: sha1WithRSAEncryption
        Issuer: DC=org, DC=simple, O=Simple Inc, OU=Simple Root CA, CN=Simple Root CA
        Validity
            Not Before: Dec 10 08:21:21 2017 GMT
            Not After : Dec 10 08:21:21 2027 GMT
        Subject: DC=org, DC=simple, O=Simple Inc, OU=Simple Root CA, CN=Simple Root CA
        Subject Public Key Info:
            Public Key Algorithm: rsaEncryption
            RSA Public Key: (2048 bit)
                Modulus (2048 bit):
                    00:bf:5b:50:8c:19:ac:d0:1f:cb:bc:3f:fa:8f:9f:
                    8a:34:b0:3f:8e:33:0b:99:0a:de:3c:66:84:71:dc:
                    94:8d:ed:3e:04:30:01:5d:33:15:28:9c:a2:b2:00:
                    03:f0:0b:d1:4d:07:48:d4:23:6d:58:dc:95:9c:b3:
                    73:46:0c:46:df:0f:60:5d:58:b4:7f:12:d5:69:f9:
                    35:69:90:af:84:3c:ae:35:b4:25:e8:7f:6f:64:e4:
                    49:ce:b1:24:e8:46:ad:16:dd:60:69:4f:f6:46:77:
                    9e:ff:5e:c1:c9:4d:91:2f:4f:a2:6b:7a:77:bf:6f:
                    54:a6:d9:f2:01:6c:fd:2e:86:8c:90:d9:95:20:6e:
                    42:f9:9d:0b:ec:95:20:ac:2c:fe:cb:c2:e9:7f:15:
                    64:72:a9:43:c4:4d:96:3f:97:a0:48:aa:40:3d:af:
                    df:88:da:da:4e:63:88:16:49:39:dd:d1:12:df:1f:
                    5a:73:1d:64:cc:da:5c:a0:c0:d8:c3:f3:6b:46:79:
                    b0:da:88:4f:e9:f4:48:f5:75:83:4c:f0:05:fd:e6:
                    9c:61:f9:a5:8e:26:f7:31:9c:c4:03:de:9c:d9:4e:
                    14:28:51:97:f0:c8:6b:4f:03:f3:0b:2a:e3:d8:31:
                    d5:6a:33:27:6c:a9:c1:23:fe:f3:af:8f:e5:15:43:
                    37:fd
                Exponent: 65537 (0x10001)
        X509v3 extensions:
            X509v3 Key Usage: critical
                Certificate Sign, CRL Sign
            X509v3 Basic Constraints: critical
                CA:TRUE
            X509v3 Subject Key Identifier: 
                23:84:CE:56:1C:D9:8C:1D:DD:A6:AE:12:CB:5B:14:ED:62:76:CA:B4
            X509v3 Authority Key Identifier: 
                keyid:23:84:CE:56:1C:D9:8C:1D:DD:A6:AE:12:CB:5B:14:ED:62:76:CA:B4

    Signature Algorithm: sha1WithRSAEncryption
        02:4e:e3:22:ec:a7:30:34:bc:82:f5:90:f9:79:18:57:bc:48:
        6a:2e:94:97:9e:f1:b3:c9:18:3f:07:9a:08:39:40:df:bb:33:
        53:eb:b3:36:6b:27:2d:25:e8:f0:27:b0:7d:2a:f3:88:0d:86:
        2b:b6:41:c7:26:73:de:81:da:91:2c:07:90:2e:e3:16:64:90:
        3e:55:65:07:19:38:4a:e2:c2:c9:db:8d:dc:d7:5b:c9:e0:f3:
        42:6c:a1:63:e1:c3:d9:eb:b1:88:bb:d5:4e:57:c0:a0:df:f6:
        fd:f5:f3:93:4e:b8:05:5f:8b:d0:17:85:69:cb:7a:f5:a2:2c:
        20:67:4d:4e:0b:b5:3c:bc:b1:65:8e:f2:84:6f:f4:94:3e:3e:
        d9:b6:4c:1f:39:03:4a:5c:b6:4c:e9:75:5c:79:b7:36:c0:db:
        ed:58:48:de:99:15:4f:73:12:2e:7e:d5:d3:05:f2:3d:06:b1:
        ca:6f:8e:9d:21:fc:86:31:5c:6c:04:b0:d0:8d:f6:72:22:0f:
        e3:11:71:25:8f:d9:c7:64:e9:58:7b:fc:26:96:fa:cb:36:d7:
        10:a3:95:26:f1:b0:18:ef:15:25:20:71:43:49:7f:26:6a:d4:
        2b:59:4c:90:34:b0:83:c8:e6:2f:24:77:c4:52:ad:b5:4e:6f:
        cb:48:4f:d4
-----BEGIN CERTIFICATE-----
MIIDxjCCAq6gAwIBAgIBATANBgkqhkiG9w0BAQUFADB0MRMwEQYKCZImiZPyLGQB
GRYDb3JnMRYwFAYKCZImiZPyLGQBGRYGc2ltcGxlMRMwEQYDVQQKDApTaW1wbGUg
SW5jMRcwFQYDVQQLDA5TaW1wbGUgUm9vdCBDQTEXMBUGA1UEAwwOU2ltcGxlIFJv
b3QgQ0EwHhcNMTcxMjEwMDgyMTIxWhcNMjcxMjEwMDgyMTIxWjB0MRMwEQYKCZIm
iZPyLGQBGRYDb3JnMRYwFAYKCZImiZPyLGQBGRYGc2ltcGxlMRMwEQYDVQQKDApT
aW1wbGUgSW5jMRcwFQYDVQQLDA5TaW1wbGUgUm9vdCBDQTEXMBUGA1UEAwwOU2lt
cGxlIFJvb3QgQ0EwggEiMA0GCSqGSIb3DQEBAQUAA4IBDwAwggEKAoIBAQC/W1CM
GazQH8u8P/qPn4o0sD+OMwuZCt48ZoRx3JSN7T4EMAFdMxUonKKyAAPwC9FNB0jU
I21Y3JWcs3NGDEbfD2BdWLR/EtVp+TVpkK+EPK41tCXof29k5EnOsSToRq0W3WBp
T/ZGd57/XsHJTZEvT6Jrene/b1Sm2fIBbP0uhoyQ2ZUgbkL5nQvslSCsLP7Lwul/
FWRyqUPETZY/l6BIqkA9r9+I2tpOY4gWSTnd0RLfH1pzHWTM2lygwNjD82tGebDa
iE/p9Ej1dYNM8AX95pxh+aWOJvcxnMQD3pzZThQoUZfwyGtPA/MLKuPYMdVqMyds
qcEj/vOvj+UVQzf9AgMBAAGjYzBhMA4GA1UdDwEB/wQEAwIBBjAPBgNVHRMBAf8E
BTADAQH/MB0GA1UdDgQWBBQjhM5WHNmMHd2mrhLLWxTtYnbKtDAfBgNVHSMEGDAW
gBQjhM5WHNmMHd2mrhLLWxTtYnbKtDANBgkqhkiG9w0BAQUFAAOCAQEAAk7jIuyn
MDS8gvWQ+XkYV7xIai6Ul57xs8kYPweaCDlA37szU+uzNmsnLSXo8CewfSrziA2G
K7ZBxyZz3oHakSwHkC7jFmSQPlVlBxk4SuLCyduN3NdbyeDzQmyhY+HD2euxiLvV
TlfAoN/2/fXzk064BV+L0BeFact69aIsIGdNTgu1PLyxZY7yhG/0lD4+2bZMHzkD
Sly2TOl1XHm3NsDb7VhI3pkVT3MSLn7V0wXyPQaxym+OnSH8hjFcbASw0I32ciIP
4xFxJY/Zx2TpWHv8Jpb6yzbXEKOVJvGwGO8VJSBxQ0l/JmrUK1lMkDSwg8jmLyR3
xFKttU5vy0hP1A==
-----END CERTIFICATE-----
